target datalayout = "e-m:e-p270:32:32-p271:32:32-p272:64:64-i64:64-i128:128-f80:128-n8:16:32:64-S128"
target triple = "x86_64-pc-linux-gnu"

%struct.rb_execution_context_struct = type { ptr, i64, ptr, ptr, i32, i32, ptr, ptr, ptr, i64, i64, i64, ptr, i64, ptr, i64, i64, i8, i8, i64, %struct.anon.7 }
%struct.anon.7 = type { ptr, ptr, i64, [1 x %struct.__jmp_buf_tag] }
%struct.__jmp_buf_tag = type { [8 x i64], i32, %struct.__sigset_t }
%struct.__sigset_t = type { [16 x i64] }
%union.anon.15 = type { i64 }
%struct.vm_ifunc_argc = type { i32, i32 }
%struct.vm_ifunc = type { i64, ptr, ptr, ptr, %struct.vm_ifunc_argc }

@rb_eRangeError = external global i64, align 8
@.str.1 = private unnamed_addr constant [41 x i8] c"minimum argument number out of range: %d\00", align 1
@.str.2 = private unnamed_addr constant [41 x i8] c"maximum argument number out of range: %d\00", align 1
@ruby_current_ec = external thread_local global ptr, align 8

; Function Attrs: inlinehint nounwind sspstrong uwtable
define internal ptr @rb_current_execution_context(i1 noundef zeroext %0) #3 {
  %2 = alloca i8, align 1
  %3 = alloca ptr, align 8
  %4 = zext i1 %0 to i8
  store i8 %4, ptr %2, align 1, !tbaa !32
  call void @llvm.lifetime.start.p0(i64 8, ptr %3) #25
  %5 = call align 8 ptr @llvm.threadlocal.address.p0(ptr align 8 @ruby_current_ec)
  %6 = load ptr, ptr %5, align 8, !tbaa !19
  store ptr %6, ptr %3, align 8, !tbaa !19
  %7 = load ptr, ptr %3, align 8, !tbaa !19
  call void @llvm.lifetime.end.p0(i64 8, ptr %3) #25
  ret ptr %7
}

; Function Attrs: nounwind sspstrong uwtable
define hidden ptr @rb_vm_ifunc_new(ptr noundef %0, ptr noundef %1, i32 noundef %2, i32 noundef %3) #0 {
  %5 = alloca ptr, align 8
  %6 = alloca ptr, align 8
  %7 = alloca i32, align 4
  %8 = alloca i32, align 4
  %9 = alloca %union.anon.15, align 8
  %10 = alloca ptr, align 8
  %11 = alloca ptr, align 8
  store ptr %0, ptr %5, align 8, !tbaa !11
  store ptr %1, ptr %6, align 8, !tbaa !11
  store i32 %2, ptr %7, align 4, !tbaa !36
  store i32 %3, ptr %8, align 4, !tbaa !36
  call void @llvm.lifetime.start.p0(i64 8, ptr %9) #25
  %12 = load i32, ptr %7, align 4, !tbaa !36
  %13 = icmp slt i32 %12, -1
  br i1 %13, label %14, label %17

14:                                               ; preds = %4
  %15 = load i64, ptr @rb_eRangeError, align 8, !tbaa !7
  %16 = load i32, ptr %7, align 4, !tbaa !36
  call void (i64, ptr, ...) @rb_raise(i64 noundef %15, ptr noundef @.str.1, i32 noundef %16) #27
  unreachable

17:                                               ; preds = %4
  %18 = load i32, ptr %8, align 4, !tbaa !36
  %19 = icmp slt i32 %18, -1
  br i1 %19, label %20, label %23

20:                                               ; preds = %17
  %21 = load i64, ptr @rb_eRangeError, align 8, !tbaa !7
  %22 = load i32, ptr %8, align 4, !tbaa !36
  call void (i64, ptr, ...) @rb_raise(i64 noundef %21, ptr noundef @.str.2, i32 noundef %22) #27
  unreachable

23:                                               ; preds = %17
  %24 = load i32, ptr %7, align 4, !tbaa !36
  %25 = getelementptr inbounds nuw %struct.vm_ifunc_argc, ptr %9, i32 0, i32 0
  store i32 %24, ptr %25, align 8, !tbaa !34
  %26 = load i32, ptr %8, align 4, !tbaa !36
  %27 = getelementptr inbounds nuw %struct.vm_ifunc_argc, ptr %9, i32 0, i32 1
  store i32 %26, ptr %27, align 4, !tbaa !34
  call void @llvm.lifetime.start.p0(i64 8, ptr %10) #25
  %28 = call ptr @rb_current_execution_context(i1 noundef zeroext true)
  store ptr %28, ptr %10, align 8, !tbaa !19
  call void @llvm.lifetime.start.p0(i64 8, ptr %11) #25
  %29 = load ptr, ptr %10, align 8, !tbaa !19
  %30 = load ptr, ptr %10, align 8, !tbaa !19
  %31 = getelementptr inbounds nuw %struct.rb_execution_context_struct, ptr %30, i32 0, i32 2
  %32 = load ptr, ptr %31, align 8, !tbaa !21
  %33 = call ptr @rb_vm_svar_lep(ptr noundef %29, ptr noundef %32)
  %34 = ptrtoint ptr %33 to i64
  %35 = call i64 @rb_imemo_new(i32 noundef 4, i64 noundef %34, i64 noundef 40)
  %36 = inttoptr i64 %35 to ptr
  store ptr %36, ptr %11, align 8, !tbaa !37
  %37 = load ptr, ptr %5, align 8, !tbaa !11
  %38 = load ptr, ptr %11, align 8, !tbaa !37
  %39 = getelementptr inbounds nuw %struct.vm_ifunc, ptr %38, i32 0, i32 2
  store ptr %37, ptr %39, align 8, !tbaa !39
  %40 = load ptr, ptr %6, align 8, !tbaa !11
  %41 = load ptr, ptr %11, align 8, !tbaa !37
  %42 = getelementptr inbounds nuw %struct.vm_ifunc, ptr %41, i32 0, i32 3
  store ptr %40, ptr %42, align 8, !tbaa !42
  %43 = load ptr, ptr %11, align 8, !tbaa !37
  %44 = getelementptr inbounds nuw %struct.vm_ifunc, ptr %43, i32 0, i32 4
  call void @llvm.memcpy.p0.p0.i64(ptr align 8 %44, ptr align 8 %9, i64 8, i1 false), !tbaa.struct !43
  %45 = load ptr, ptr %11, align 8, !tbaa !37
  call void @llvm.lifetime.end.p0(i64 8, ptr %11) #25
  call void @llvm.lifetime.end.p0(i64 8, ptr %10) #25
  call void @llvm.lifetime.end.p0(i64 8, ptr %9) #25
  ret ptr %45
}