; Function Attrs: nounwind sspstrong uwtable
define hidden ptr @rb_vm_ifunc_new(ptr noundef %0, ptr noundef %1, i32 noundef %2, i32 noundef %3) local_unnamed_addr #0 {
  %5 = icmp slt i32 %2, -1
  br i1 %5, label %6, label %8

6:                                                ; preds = %4
  %7 = load i64, ptr @rb_eRangeError, align 8, !tbaa !36
  tail call void (i64, ptr, ...) @rb_raise(i64 noundef %7, ptr noundef nonnull @.str.1, i32 noundef %2) #22
  unreachable

8:                                                ; preds = %4
  %9 = icmp slt i32 %3, -1
  br i1 %9, label %10, label %12

10:                                               ; preds = %8
  %11 = load i64, ptr @rb_eRangeError, align 8, !tbaa !36
  tail call void (i64, ptr, ...) @rb_raise(i64 noundef %11, ptr noundef nonnull @.str.2, i32 noundef %3) #22
  unreachable

12:                                               ; preds = %8
  %13 = tail call align 8 ptr @llvm.threadlocal.address.p0(ptr align 8 @ruby_current_ec)
  %14 = load ptr, ptr %13, align 8, !tbaa !20
  %15 = getelementptr inbounds nuw i8, ptr %14, i64 16
  %16 = load ptr, ptr %15, align 8, !tbaa !22
  %17 = tail call ptr @rb_vm_svar_lep(ptr noundef %14, ptr noundef %16) #21
  %18 = ptrtoint ptr %17 to i64
  %19 = tail call i64 @rb_imemo_new(i32 noundef 4, i64 noundef %18, i64 noundef 40) #21
  %20 = inttoptr i64 %19 to ptr
  %21 = getelementptr inbounds nuw i8, ptr %20, i64 16
  store ptr %0, ptr %21, align 8, !tbaa !37
  %22 = getelementptr inbounds nuw i8, ptr %20, i64 24
  store ptr %1, ptr %22, align 8, !tbaa !40
  %23 = getelementptr inbounds nuw i8, ptr %20, i64 32
  store i32 %2, ptr %23, align 8, !tbaa !41
  %.sroa.4.0..sroa_idx = getelementptr inbounds nuw i8, ptr %20, i64 36
  store i32 %3, ptr %.sroa.4.0..sroa_idx, align 4, !tbaa !41
  ret ptr %20
}